LIBRARY libtorchvision
EXPORTS
?$TSS0@?1???$_typeMetaData@D@TypeMeta@caffe2@@CAGXZ@4HA
?$TSS0@?1???$_typeMetaData@G@TypeMeta@caffe2@@CAGXZ@4HA
?$TSS0@?1???$_typeMetaData@J@TypeMeta@caffe2@@CAGXZ@4HA
?$TSS0@?1???$_typeMetaData@PEAD@TypeMeta@caffe2@@CAGXZ@4HA
?$TSS0@?1???$_typeMetaData@PEAH@TypeMeta@caffe2@@CAGXZ@4HA
?$TSS0@?1???$_typeMetaData@PEAM@TypeMeta@caffe2@@CAGXZ@4HA
?$TSS0@?1???$_typeMetaData@PEAUHalf@c10@@@TypeMeta@caffe2@@CAGXZ@4HA
?$TSS0@?1???$_typeMetaData@PEA_N@TypeMeta@caffe2@@CAGXZ@4HA
?$TSS0@?1???$_typeMetaData@V?$basic_string@DU?$char_traits@D@std@@V?$allocator@D@2@@std@@@TypeMeta@caffe2@@CAGXZ@4HA
?$TSS0@?1???$_typeMetaData@V?$unique_ptr@U?$atomic@_N@std@@U?$default_delete@U?$atomic@_N@std@@@2@@std@@@TypeMeta@caffe2@@CAGXZ@4HA
?$TSS0@?1???$_typeMetaData@V?$unique_ptr@Vmutex@std@@U?$default_delete@Vmutex@std@@@2@@std@@@TypeMeta@caffe2@@CAGXZ@4HA
?$TSS0@?1???$_typeMetaData@V?$vector@HV?$allocator@H@std@@@std@@@TypeMeta@caffe2@@CAGXZ@4HA
?$TSS0@?1???$_typeMetaData@V?$vector@JV?$allocator@J@std@@@std@@@TypeMeta@caffe2@@CAGXZ@4HA
?$TSS0@?1???$_typeMetaData@V?$vector@KV?$allocator@K@std@@@std@@@TypeMeta@caffe2@@CAGXZ@4HA
?$TSS0@?1???$_typeMetaData@V?$vector@_JV?$allocator@_J@std@@@std@@@TypeMeta@caffe2@@CAGXZ@4HA
??$_typeMetaData@D@TypeMeta@caffe2@@CAGXZ
??$_typeMetaData@G@TypeMeta@caffe2@@CAGXZ
??$_typeMetaData@J@TypeMeta@caffe2@@CAGXZ
??$_typeMetaData@PEAD@TypeMeta@caffe2@@CAGXZ
??$_typeMetaData@PEAH@TypeMeta@caffe2@@CAGXZ
??$_typeMetaData@PEAM@TypeMeta@caffe2@@CAGXZ
??$_typeMetaData@PEAUHalf@c10@@@TypeMeta@caffe2@@CAGXZ
??$_typeMetaData@PEA_N@TypeMeta@caffe2@@CAGXZ
??$_typeMetaData@V?$basic_string@DU?$char_traits@D@std@@V?$allocator@D@2@@std@@@TypeMeta@caffe2@@CAGXZ
??$_typeMetaData@V?$unique_ptr@U?$atomic@_N@std@@U?$default_delete@U?$atomic@_N@std@@@2@@std@@@TypeMeta@caffe2@@CAGXZ
??$_typeMetaData@V?$unique_ptr@Vmutex@std@@U?$default_delete@Vmutex@std@@@2@@std@@@TypeMeta@caffe2@@CAGXZ
??$_typeMetaData@V?$vector@HV?$allocator@H@std@@@std@@@TypeMeta@caffe2@@CAGXZ
??$_typeMetaData@V?$vector@JV?$allocator@J@std@@@std@@@TypeMeta@caffe2@@CAGXZ
??$_typeMetaData@V?$vector@KV?$allocator@K@std@@@std@@@TypeMeta@caffe2@@CAGXZ
??$_typeMetaData@V?$vector@_JV?$allocator@_J@std@@@std@@@TypeMeta@caffe2@@CAGXZ
??$_typeMetaData@V_Uninitialized@detail@caffe2@@@TypeMeta@caffe2@@CAGXZ
??0Await@ivalue@c10@@AEAA@V?$SingletonOrSharedTypePtr@UType@c10@@@Type@2@@Z
??0Await@ivalue@c10@@AEAA@V?$SingletonOrSharedTypePtr@UType@c10@@@Type@2@V?$function@$$A6A?AUIValue@c10@@XZ@std@@@Z
??0Future@ivalue@c10@@AEAA@V?$SingletonOrSharedTypePtr@UType@c10@@@Type@2@V?$vector@UDevice@c10@@V?$allocator@UDevice@c10@@@std@@@std@@@Z
??0Object@ivalue@c10@@QEAA@$$QEAU012@@Z
??0Object@ivalue@c10@@QEAA@AEBU012@@Z
??0Object@ivalue@c10@@QEAA@UStrongTypePtr@2@_K@Z
??0Object@ivalue@c10@@QEAA@UWeakOrStrongTypePtr@2@_K@Z
??0RRefInterface@c10@@QEAA@XZ
??1Await@ivalue@c10@@UEAA@XZ
??1Future@ivalue@c10@@UEAA@XZ
??1Object@ivalue@c10@@UEAA@XZ
??1RRefInterface@c10@@UEAA@XZ
??4Object@ivalue@c10@@QEAAAEAU012@$$QEAU012@@Z
??4Object@ivalue@c10@@QEAAAEAU012@AEBU012@@Z
??_7Await@ivalue@c10@@6B@
??_7Future@ivalue@c10@@6B@
??_7Object@ivalue@c10@@6B@
??_7RRefInterface@c10@@6B@
?args@Await@ivalue@c10@@QEAAAEAV?$vector@UIValue@c10@@V?$allocator@UIValue@c10@@@std@@@std@@XZ
?compilation_unit@Object@ivalue@c10@@QEAA?AV?$shared_ptr@UCompilationUnit@jit@torch@@@std@@XZ
?completed@Await@ivalue@c10@@QEAA_NXZ
?completed@Future@ivalue@c10@@QEBA_NXZ
?constValue@Future@ivalue@c10@@QEBAAEBUIValue@3@XZ
?create@Object@ivalue@c10@@SA?AV?$intrusive_ptr@UObject@ivalue@c10@@U?$intrusive_target_default_null_type@UObject@ivalue@c10@@@detail@3@@3@UStrongTypePtr@3@_K@Z
?create@Object@ivalue@c10@@SA?AV?$intrusive_ptr@UObject@ivalue@c10@@U?$intrusive_target_default_null_type@UObject@ivalue@c10@@@detail@3@@3@UWeakOrStrongTypePtr@3@_K@Z
?createInstance@Future@ivalue@c10@@QEAA?AV?$intrusive_ptr@UFuture@ivalue@c10@@U?$intrusive_target_default_null_type@UFuture@ivalue@c10@@@detail@3@@3@V?$SingletonOrSharedTypePtr@UType@c10@@@Type@3@@Z
?cuda_version@vision@@YA_JXZ
?deform_conv2d@ops@vision@@YA?AVTensor@at@@AEBV34@0000_J1111111_N@Z
?devices@Future@ivalue@c10@@QEBAAEBV?$vector@UDevice@c10@@V?$allocator@UDevice@c10@@@std@@@std@@XZ
?elementType@Await@ivalue@c10@@QEBA?AV?$SingletonOrSharedTypePtr@UType@c10@@@Type@3@XZ
?elementType@Future@ivalue@c10@@QEBA?AV?$SingletonOrSharedTypePtr@UType@c10@@@Type@3@XZ
?ensureIsSubsetOfDevices@Future@ivalue@c10@@CAXAEBV?$vector@UDevice@c10@@V?$allocator@UDevice@c10@@@std@@@std@@0@Z
?exception_ptr@Future@ivalue@c10@@QEBA?AV0std@@XZ
?formatSetOfDevices@Future@ivalue@c10@@CA?AV?$basic_string@DU?$char_traits@D@std@@V?$allocator@D@2@@std@@AEBV?$vector@UDevice@c10@@V?$allocator@UDevice@c10@@@std@@@5@@Z
?getDevicesOfStorages@Future@ivalue@c10@@CA?AV?$vector@UDevice@c10@@V?$allocator@UDevice@c10@@@std@@@std@@AEBVVirtualGuardImpl@impl@3@AEBV?$vector@V?$weak_intrusive_ptr@UStorageImpl@c10@@U?$intrusive_target_default_null_type@UStorageImpl@c10@@@detail@2@@c10@@V?$allocator@V?$weak_intrusive_ptr@UStorageImpl@c10@@U?$intrusive_target_default_null_type@UStorageImpl@c10@@@detail@2@@c10@@@std@@@5@@Z
?getSlot@Object@ivalue@c10@@QEBAAEBUIValue@3@_K@Z
?getTypeOfDevices@Future@ivalue@c10@@CA?AW4DeviceType@3@AEBV?$vector@UDevice@c10@@V?$allocator@UDevice@c10@@@std@@@std@@@Z
?hasError@Future@ivalue@c10@@QEBA_NXZ
?hasValue@Future@ivalue@c10@@QEBA_NXZ
?index@?1???$_typeMetaData@D@TypeMeta@caffe2@@CAGXZ@4GB
?index@?1???$_typeMetaData@G@TypeMeta@caffe2@@CAGXZ@4GB
?index@?1???$_typeMetaData@J@TypeMeta@caffe2@@CAGXZ@4GB
?index@?1???$_typeMetaData@PEAD@TypeMeta@caffe2@@CAGXZ@4GB
?index@?1???$_typeMetaData@PEAH@TypeMeta@caffe2@@CAGXZ@4GB
?index@?1???$_typeMetaData@PEAM@TypeMeta@caffe2@@CAGXZ@4GB
?index@?1???$_typeMetaData@PEAUHalf@c10@@@TypeMeta@caffe2@@CAGXZ@4GB
?index@?1???$_typeMetaData@PEA_N@TypeMeta@caffe2@@CAGXZ@4GB
?index@?1???$_typeMetaData@V?$basic_string@DU?$char_traits@D@std@@V?$allocator@D@2@@std@@@TypeMeta@caffe2@@CAGXZ@4GB
?index@?1???$_typeMetaData@V?$unique_ptr@U?$atomic@_N@std@@U?$default_delete@U?$atomic@_N@std@@@2@@std@@@TypeMeta@caffe2@@CAGXZ@4GB
?index@?1???$_typeMetaData@V?$unique_ptr@Vmutex@std@@U?$default_delete@Vmutex@std@@@2@@std@@@TypeMeta@caffe2@@CAGXZ@4GB
?index@?1???$_typeMetaData@V?$vector@HV?$allocator@H@std@@@std@@@TypeMeta@caffe2@@CAGXZ@4GB
?index@?1???$_typeMetaData@V?$vector@JV?$allocator@J@std@@@std@@@TypeMeta@caffe2@@CAGXZ@4GB
?index@?1???$_typeMetaData@V?$vector@KV?$allocator@K@std@@@std@@@TypeMeta@caffe2@@CAGXZ@4GB
?index@?1???$_typeMetaData@V?$vector@_JV?$allocator@_J@std@@@std@@@TypeMeta@caffe2@@CAGXZ@4GB
?is_empty_strong_compilation_ref@Object@ivalue@c10@@QEBA_NXZ
?is_weak_compilation_ref@Object@ivalue@c10@@QEBA_NXZ
?markCompleted@Await@ivalue@c10@@QEAAXUIValue@3@@Z
?markCompleted@Future@ivalue@c10@@QEAAXUIValue@3@V?$optional@V?$vector@V?$weak_intrusive_ptr@UStorageImpl@c10@@U?$intrusive_target_default_null_type@UStorageImpl@c10@@@detail@2@@c10@@V?$allocator@V?$weak_intrusive_ptr@UStorageImpl@c10@@U?$intrusive_target_default_null_type@UStorageImpl@c10@@@detail@2@@c10@@@std@@@std@@@3@@Z
?markCompleted@Future@ivalue@c10@@QEAAXXZ
?nms@ops@vision@@YA?AVTensor@at@@AEBV34@0N@Z
?ps_roi_align@ops@vision@@YA?AV?$tuple@VTensor@at@@V12@@std@@AEBVTensor@at@@0N_J11@Z
?ps_roi_pool@ops@vision@@YA?AV?$tuple@VTensor@at@@V12@@std@@AEBVTensor@at@@0N_J1@Z
?roi_align@ops@vision@@YA?AVTensor@at@@AEBV34@0N_J11_N@Z
?roi_pool@ops@vision@@YA?AV?$tuple@VTensor@at@@V12@@std@@AEBVTensor@at@@0N_J1@Z
?setArgs@Await@ivalue@c10@@QEAAXV?$vector@UIValue@c10@@V?$allocator@UIValue@c10@@@std@@@std@@@Z
?setError@Future@ivalue@c10@@QEAAXVexception_ptr@std@@@Z
?setErrorIfNeeded@Future@ivalue@c10@@QEAAXVexception_ptr@std@@@Z
?setErrorInternal@Future@ivalue@c10@@AEAAXVexception_ptr@std@@AEAV?$unique_lock@Vmutex@std@@@5@@Z
?setFn@Await@ivalue@c10@@QEAAXV?$function@$$A6A?AUIValue@c10@@XZ@std@@@Z
?setSlot@Object@ivalue@c10@@QEAAX_KUIValue@3@@Z
?slots@Object@ivalue@c10@@QEBAAEBV?$vector@UIValue@c10@@V?$allocator@UIValue@c10@@@std@@@std@@XZ
?sortAndDeduplicateDevices@Future@ivalue@c10@@CA?AV?$vector@UDevice@c10@@V?$allocator@UDevice@c10@@@std@@@std@@AEBVVirtualGuardImpl@impl@3@V45@@Z
?storages@Future@ivalue@c10@@QEBAAEBV?$vector@V?$weak_intrusive_ptr@UStorageImpl@c10@@U?$intrusive_target_default_null_type@UStorageImpl@c10@@@detail@2@@c10@@V?$allocator@V?$weak_intrusive_ptr@UStorageImpl@c10@@U?$intrusive_target_default_null_type@UStorageImpl@c10@@@detail@2@@c10@@@std@@@std@@XZ
?synchronizeWithCurrentStreams@Future@ivalue@c10@@AEAAXXZ
?tryRetrieveErrorMessage@Future@ivalue@c10@@QEBA?AV?$basic_string@DU?$char_traits@D@std@@V?$allocator@D@2@@std@@XZ
?tryRetrieveErrorMessageInternal@Future@ivalue@c10@@AEBA?AV?$basic_string@DU?$char_traits@D@std@@V?$allocator@D@2@@std@@Vexception_ptr@5@@Z
?type@Await@ivalue@c10@@QEBA?AV?$SingletonOrSharedTypePtr@UType@c10@@@Type@3@XZ
?unsafeRemoveSlot@Object@ivalue@c10@@QEAAX_K@Z
?unsafe_make_weak_compilation_ref@Object@ivalue@c10@@QEAAXXZ
?value@Await@ivalue@c10@@QEAA?AUIValue@3@XZ
?value@Future@ivalue@c10@@QEAA?AUIValue@3@XZ
?wait@Await@ivalue@c10@@QEAA?AUIValue@3@XZ
?wait@Future@ivalue@c10@@QEAAXXZ
?waitAndThrow@Future@ivalue@c10@@QEAAXXZ
PyInit__C